; ModuleID = '28/86.c'
source_filename = "28/86.c"
target datalayout = "e-m:e-p270:32:32-p271:32:32-p272:64:64-i64:64-f80:128-n8:16:32:64-S128"
target triple = "x86_64-pc-linux-gnu"

@.str = private unnamed_addr constant [3 x i8] c"%d\00", align 1
@.str.1 = private unnamed_addr constant [4 x i8] c",%d\00", align 1

; Function Attrs: noinline nounwind uwtable
define dso_local void @main() #0 {
  %1 = alloca [10000 x i8], align 16
  %2 = alloca [300 x [100 x i8]], align 16
  %3 = alloca i32, align 4
  %4 = alloca i32, align 4
  %5 = alloca i32, align 4
  %6 = alloca i32, align 4
  %7 = alloca [300 x i32], align 16
  %8 = alloca i32, align 4
  store i32 0, i32* %8, align 4
  store i32 0, i32* %5, align 4
  store i32 0, i32* %4, align 4
  %9 = getelementptr inbounds [10000 x i8], [10000 x i8]* %1, i64 0, i64 0
  %10 = call i32 (i8*, ...) bitcast (i32 (...)* @gets to i32 (i8*, ...)*)(i8* %9)
  %11 = getelementptr inbounds [10000 x i8], [10000 x i8]* %1, i64 0, i64 0
  %12 = call i64 @strlen(i8* %11) #3
  %13 = trunc i64 %12 to i32
  store i32 %13, i32* %6, align 4
  store i32 0, i32* %3, align 4
  br label %14

14:                                               ; preds = %71, %0
  %15 = load i32, i32* %3, align 4
  %16 = load i32, i32* %6, align 4
  %17 = icmp slt i32 %15, %16
  br i1 %17, label %18, label %74

18:                                               ; preds = %14
  %19 = load i32, i32* %3, align 4
  %20 = sext i32 %19 to i64
  %21 = getelementptr inbounds [10000 x i8], [10000 x i8]* %1, i64 0, i64 %20
  %22 = load i8, i8* %21, align 1
  %23 = sext i8 %22 to i32
  %24 = icmp eq i32 %23, 32
  br i1 %24, label %25, label %37

25:                                               ; preds = %18
  %26 = load i32, i32* %8, align 4
  %27 = icmp ne i32 %26, 0
  br i1 %27, label %28, label %37

28:                                               ; preds = %25
  %29 = load i32, i32* %5, align 4
  %30 = sext i32 %29 to i64
  %31 = getelementptr inbounds [300 x [100 x i8]], [300 x [100 x i8]]* %2, i64 0, i64 %30
  %32 = load i32, i32* %4, align 4
  %33 = sext i32 %32 to i64
  %34 = getelementptr inbounds [100 x i8], [100 x i8]* %31, i64 0, i64 %33
  store i8 0, i8* %34, align 1
  %35 = load i32, i32* %5, align 4
  %36 = add nsw i32 %35, 1
  store i32 %36, i32* %5, align 4
  store i32 0, i32* %4, align 4
  store i32 0, i32* %8, align 4
  br label %71

37:                                               ; preds = %25, %18
  %38 = load i32, i32* %3, align 4
  %39 = sext i32 %38 to i64
  %40 = getelementptr inbounds [10000 x i8], [10000 x i8]* %1, i64 0, i64 %39
  %41 = load i8, i8* %40, align 1
  %42 = sext i8 %41 to i32
  %43 = icmp eq i32 %42, 32
  br i1 %43, label %44, label %48

44:                                               ; preds = %37
  %45 = load i32, i32* %8, align 4
  %46 = icmp eq i32 %45, 0
  br i1 %46, label %47, label %48

47:                                               ; preds = %44
  br label %71

48:                                               ; preds = %44, %37
  %49 = load i32, i32* %3, align 4
  %50 = sext i32 %49 to i64
  %51 = getelementptr inbounds [10000 x i8], [10000 x i8]* %1, i64 0, i64 %50
  %52 = load i8, i8* %51, align 1
  %53 = sext i8 %52 to i32
  %54 = icmp ne i32 %53, 32
  br i1 %54, label %55, label %68

55:                                               ; preds = %48
  %56 = load i32, i32* %3, align 4
  %57 = sext i32 %56 to i64
  %58 = getelementptr inbounds [10000 x i8], [10000 x i8]* %1, i64 0, i64 %57
  %59 = load i8, i8* %58, align 1
  %60 = load i32, i32* %5, align 4
  %61 = sext i32 %60 to i64
  %62 = getelementptr inbounds [300 x [100 x i8]], [300 x [100 x i8]]* %2, i64 0, i64 %61
  %63 = load i32, i32* %4, align 4
  %64 = sext i32 %63 to i64
  %65 = getelementptr inbounds [100 x i8], [100 x i8]* %62, i64 0, i64 %64
  store i8 %59, i8* %65, align 1
  %66 = load i32, i32* %4, align 4
  %67 = add nsw i32 %66, 1
  store i32 %67, i32* %4, align 4
  store i32 1, i32* %8, align 4
  br label %68

68:                                               ; preds = %55, %48
  br label %69

69:                                               ; preds = %68
  br label %70

70:                                               ; preds = %69
  br label %71

71:                                               ; preds = %70, %47, %28
  %72 = load i32, i32* %3, align 4
  %73 = add nsw i32 %72, 1
  store i32 %73, i32* %3, align 4
  br label %14

74:                                               ; preds = %14
  store i32 0, i32* %3, align 4
  br label %75

75:                                               ; preds = %89, %74
  %76 = load i32, i32* %3, align 4
  %77 = load i32, i32* %5, align 4
  %78 = icmp sle i32 %76, %77
  br i1 %78, label %79, label %92

79:                                               ; preds = %75
  %80 = load i32, i32* %3, align 4
  %81 = sext i32 %80 to i64
  %82 = getelementptr inbounds [300 x [100 x i8]], [300 x [100 x i8]]* %2, i64 0, i64 %81
  %83 = getelementptr inbounds [100 x i8], [100 x i8]* %82, i64 0, i64 0
  %84 = call i64 @strlen(i8* %83) #3
  %85 = trunc i64 %84 to i32
  %86 = load i32, i32* %3, align 4
  %87 = sext i32 %86 to i64
  %88 = getelementptr inbounds [300 x i32], [300 x i32]* %7, i64 0, i64 %87
  store i32 %85, i32* %88, align 4
  br label %89

89:                                               ; preds = %79
  %90 = load i32, i32* %3, align 4
  %91 = add nsw i32 %90, 1
  store i32 %91, i32* %3, align 4
  br label %75

92:                                               ; preds = %75
  store i32 0, i32* %4, align 4
  store i32 0, i32* %3, align 4
  br label %93

93:                                               ; preds = %113, %92
  %94 = load i32, i32* %3, align 4
  %95 = load i32, i32* %5, align 4
  %96 = icmp sle i32 %94, %95
  br i1 %96, label %97, label %116

97:                                               ; preds = %93
  %98 = load i32, i32* %4, align 4
  %99 = icmp eq i32 %98, 0
  br i1 %99, label %100, label %106

100:                                              ; preds = %97
  %101 = load i32, i32* %3, align 4
  %102 = sext i32 %101 to i64
  %103 = getelementptr inbounds [300 x i32], [300 x i32]* %7, i64 0, i64 %102
  %104 = load i32, i32* %103, align 4
  %105 = call i32 (i8*, ...) @printf(i8* getelementptr inbounds ([3 x i8], [3 x i8]* @.str, i64 0, i64 0), i32 %104)
  store i32 1, i32* %4, align 4
  br label %112

106:                                              ; preds = %97
  %107 = load i32, i32* %3, align 4
  %108 = sext i32 %107 to i64
  %109 = getelementptr inbounds [300 x i32], [300 x i32]* %7, i64 0, i64 %108
  %110 = load i32, i32* %109, align 4
  %111 = call i32 (i8*, ...) @printf(i8* getelementptr inbounds ([4 x i8], [4 x i8]* @.str.1, i64 0, i64 0), i32 %110)
  br label %112

112:                                              ; preds = %106, %100
  br label %113

113:                                              ; preds = %112
  %114 = load i32, i32* %3, align 4
  %115 = add nsw i32 %114, 1
  store i32 %115, i32* %3, align 4
  br label %93

116:                                              ; preds = %93
  ret void
}

declare dso_local i32 @gets(...) #1

; Function Attrs: nounwind readonly
declare dso_local i64 @strlen(i8*) #2

declare dso_local i32 @printf(i8*, ...) #1


!llvm.module.flags = !{!0}
!llvm.ident = !{!1}

!0 = !{i32 1, !"wchar_size", i32 4}
!1 = !{!"clang version 10.0.0-4ubuntu1 "}
